target datalayout = "e-m:e-p270:32:32-p271:32:32-p272:64:64-i64:64-i128:128-f80:128-n8:16:32:64-S128"
target triple = "x86_64-pc-linux-gnu"

; Function Attrs: mustprogress uwtable
define noundef i32 @_ZN12duckdb_miniz38mz_zip_reader_extract_file_to_callbackEPNS_14mz_zip_archiveEPKcPFmPvmPKvmES4_j(ptr noundef %0, ptr noundef %1, ptr noundef %2, ptr noundef %3, i32 noundef %4) #5 {
  %6 = alloca i32, align 4
  %7 = alloca ptr, align 8
  %8 = alloca ptr, align 8
  %9 = alloca ptr, align 8
  %10 = alloca ptr, align 8
  %11 = alloca i32, align 4
  %12 = alloca i32, align 4
  %13 = alloca i32, align 4
  store ptr %0, ptr %7, align 8, !tbaa !19
  store ptr %1, ptr %8, align 8, !tbaa !7
  store ptr %2, ptr %9, align 8, !tbaa !19
  store ptr %3, ptr %10, align 8, !tbaa !19
  store i32 %4, ptr %11, align 4, !tbaa !10
  call void @llvm.lifetime.start.p0(i64 4, ptr %12) #11
  %14 = load ptr, ptr %7, align 8, !tbaa !19
  %15 = load ptr, ptr %8, align 8, !tbaa !7
  %16 = load i32, ptr %11, align 4, !tbaa !10
  %17 = call noundef i32 @_ZN12duckdb_miniz28mz_zip_reader_locate_file_v2EPNS_14mz_zip_archiveEPKcS3_jPj(ptr noundef %14, ptr noundef %15, ptr noundef null, i32 noundef %16, ptr noundef %12)
  %18 = icmp ne i32 %17, 0
  br i1 %18, label %20, label %19

19:                                               ; preds = %5
  store i32 0, ptr %6, align 4
  store i32 1, ptr %13, align 4
  br label %27

20:                                               ; preds = %5
  %21 = load ptr, ptr %7, align 8, !tbaa !19
  %22 = load i32, ptr %12, align 4, !tbaa !10
  %23 = load ptr, ptr %9, align 8, !tbaa !19
  %24 = load ptr, ptr %10, align 8, !tbaa !19
  %25 = load i32, ptr %11, align 4, !tbaa !10
  %26 = call noundef i32 @_ZN12duckdb_miniz33mz_zip_reader_extract_to_callbackEPNS_14mz_zip_archiveEjPFmPvmPKvmES2_j(ptr noundef %21, i32 noundef %22, ptr noundef %23, ptr noundef %24, i32 noundef %25)
  store i32 %26, ptr %6, align 4
  store i32 1, ptr %13, align 4
  br label %27

27:                                               ; preds = %20, %19
  call void @llvm.lifetime.end.p0(i64 4, ptr %12) #11
  %28 = load i32, ptr %6, align 4
  ret i32 %28
}