; Function Attrs: mustprogress uwtable
define noundef range(i32 0, 2) i32 @_ZN12duckdb_miniz38mz_zip_reader_extract_file_to_callbackEPNS_14mz_zip_archiveEPKcPFmPvmPKvmES4_j(ptr noundef captures(address_is_null) %0, ptr noundef captures(address_is_null) %1, ptr noundef captures(address_is_null) %2, ptr noundef %3, i32 noundef %4) local_unnamed_addr #8 {
  %6 = alloca i32, align 4
  call void @llvm.lifetime.start.p0(i64 4, ptr nonnull %6) #25
  %7 = call noundef i32 @_ZN12duckdb_miniz28mz_zip_reader_locate_file_v2EPNS_14mz_zip_archiveEPKcS3_jPj(ptr noundef %0, ptr noundef %1, ptr noundef null, i32 noundef %4, ptr noundef nonnull %6)
  %.not = icmp eq i32 %7, 0
  br i1 %.not, label %11, label %8

8:                                                ; preds = %5
  %9 = load i32, ptr %6, align 4, !tbaa !10
  %10 = call noundef i32 @_ZN12duckdb_miniz33mz_zip_reader_extract_to_callbackEPNS_14mz_zip_archiveEjPFmPvmPKvmES2_j(ptr noundef %0, i32 noundef %9, ptr noundef %2, ptr noundef %3, i32 noundef %4)
  br label %11

11:                                               ; preds = %5, %8
  %.0 = phi i32 [ %10, %8 ], [ 0, %5 ]
  call void @llvm.lifetime.end.p0(i64 4, ptr nonnull %6) #25
  ret i32 %.0
}